target datalayout = "e-m:e-p270:32:32-p271:32:32-p272:64:64-i64:64-i128:128-f80:128-n8:16:32:64-S128"
target triple = "x86_64-pc-linux-gnu"

%"class.zmq::msg_t" = type { %union.anon }
%union.anon = type { %struct.anon }
%struct.anon = type { ptr, [34 x i8], i8, i8, i32, %"union.zmq::msg_t::group_t" }
%"union.zmq::msg_t::group_t" = type { %struct.anon.1 }
%struct.anon.1 = type { i8, ptr }
%"class.zmq::pipe_t" = type { %"class.zmq::object_t.base", [4 x i8], %"class.zmq::array_item_t.base", [4 x i8], %"class.zmq::array_item_t.base.11", [4 x i8], %"class.zmq::array_item_t.base.13", ptr, ptr, i8, i8, i32, i32, i32, i32, i64, i64, i64, ptr, ptr, i32, i8, [3 x i8], %"struct.zmq::blob_t", i32, i8, [3 x i8], %"struct.zmq::endpoint_uri_pair_t", %"class.zmq::msg_t" }
%"class.zmq::object_t.base" = type <{ ptr, ptr, i32 }>
%"class.zmq::array_item_t.base" = type <{ ptr, i32 }>
%"class.zmq::array_item_t.base.11" = type <{ ptr, i32 }>
%"class.zmq::array_item_t.base.13" = type <{ ptr, i32 }>
%"struct.zmq::blob_t" = type <{ ptr, i64, i8, [7 x i8] }>
%"struct.zmq::endpoint_uri_pair_t" = type <{ %"class.std::__cxx11::basic_string", %"class.std::__cxx11::basic_string", i32, [4 x i8] }>
%"class.std::__cxx11::basic_string" = type { %"struct.std::__cxx11::basic_string<char>::_Alloc_hider", i64, %union.anon.14 }
%"struct.std::__cxx11::basic_string<char>::_Alloc_hider" = type { ptr }
%union.anon.14 = type { i64, [8 x i8] }

; Function Attrs: mustprogress uwtable
define void @_ZN3zmq6pipe_t22process_activate_writeEm(ptr noundef nonnull align 8 dereferenceable(328) %0, i64 noundef %1) unnamed_addr #0 align 2 {
  %3 = alloca ptr, align 8
  %4 = alloca i64, align 8
  store ptr %0, ptr %3, align 8, !tbaa !27
  store i64 %1, ptr %4, align 8, !tbaa !113
  %5 = load ptr, ptr %3, align 8
  %6 = load i64, ptr %4, align 8, !tbaa !113
  %7 = getelementptr inbounds nuw %"class.zmq::pipe_t", ptr %5, i32 0, i32 17
  store i64 %6, ptr %7, align 8, !tbaa !124
  %8 = getelementptr inbounds nuw %"class.zmq::pipe_t", ptr %5, i32 0, i32 10
  %9 = load i8, ptr %8, align 1, !tbaa !118, !range !17, !noundef !18
  %10 = trunc i8 %9 to i1
  br i1 %10, label %22, label %11

11:                                               ; preds = %2
  %12 = getelementptr inbounds nuw %"class.zmq::pipe_t", ptr %5, i32 0, i32 20
  %13 = load i32, ptr %12, align 8, !tbaa !110
  %14 = icmp eq i32 %13, 0
  br i1 %14, label %15, label %22

15:                                               ; preds = %11
  %16 = getelementptr inbounds nuw %"class.zmq::pipe_t", ptr %5, i32 0, i32 10
  store i8 1, ptr %16, align 1, !tbaa !118
  %17 = getelementptr inbounds nuw %"class.zmq::pipe_t", ptr %5, i32 0, i32 19
  %18 = load ptr, ptr %17, align 8, !tbaa !125
  %19 = load ptr, ptr %18, align 8, !tbaa !31
  %20 = getelementptr inbounds ptr, ptr %19, i64 3
  %21 = load ptr, ptr %20, align 8
  call void %21(ptr noundef nonnull align 8 dereferenceable(8) %18, ptr noundef %5)
  br label %22

22:                                               ; preds = %15, %11, %2
  ret void
}