; Function Attrs: mustprogress uwtable
define void @_ZN3zmq6pipe_t22process_activate_writeEm(ptr noundef nonnull align 8 dereferenceable(328) initializes((128, 136)) %0, i64 noundef %1) unnamed_addr #0 align 2 {
  %3 = getelementptr inbounds nuw i8, ptr %0, i64 128
  store i64 %1, ptr %3, align 8, !tbaa !132
  %4 = getelementptr inbounds nuw i8, ptr %0, i64 89
  %5 = load i8, ptr %4, align 1, !tbaa !101, !range !7, !noundef !8
  %6 = trunc nuw i8 %5 to i1
  %7 = getelementptr inbounds nuw i8, ptr %0, i64 152
  %8 = load i32, ptr %7, align 8
  %9 = icmp ne i32 %8, 0
  %or.cond.not = select i1 %6, i1 true, i1 %9
  br i1 %or.cond.not, label %16, label %10

10:                                               ; preds = %2
  store i8 1, ptr %4, align 1, !tbaa !101
  %11 = getelementptr inbounds nuw i8, ptr %0, i64 144
  %12 = load ptr, ptr %11, align 8, !tbaa !126
  %13 = load ptr, ptr %12, align 8, !tbaa !9
  %14 = getelementptr inbounds nuw i8, ptr %13, i64 24
  %15 = load ptr, ptr %14, align 8
  tail call void %15(ptr noundef nonnull align 8 dereferenceable(8) %12, ptr noundef nonnull %0)
  br label %16

16:                                               ; preds = %10, %2
  ret void
}